; Function Attrs: nounwind uwtable
define internal ptr @setconfig(ptr noundef readonly captures(none) %0, ptr noundef readonly captures(none) %1, i64 noundef %2) #0 {
  %4 = alloca i32, align 4
  %5 = add i64 %2, -1
  %or.cond = icmp ult i64 %5, 2
  br i1 %or.cond, label %8, label %6

6:                                                ; preds = %3
  %7 = tail call i32 @_PyArg_CheckPositional(ptr noundef nonnull @.str.34, i64 noundef %2, i64 noundef 1, i64 noundef 2) #7
  %.not = icmp eq i32 %7, 0
  br i1 %.not, label %setconfig_impl.exit, label %8

8:                                                ; preds = %3, %6
  %9 = load ptr, ptr %1, align 8, !tbaa !25
  %10 = tail call i32 @PyLong_AsInt(ptr noundef %9) #7
  %11 = icmp eq i32 %10, -1
  br i1 %11, label %12, label %14

12:                                               ; preds = %8
  %13 = tail call ptr @PyErr_Occurred() #7
  %.not14 = icmp eq ptr %13, null
  br i1 %.not14, label %14, label %setconfig_impl.exit

14:                                               ; preds = %12, %8
  %15 = icmp slt i64 %2, 2
  br i1 %15, label %21, label %16

16:                                               ; preds = %14
  %17 = getelementptr i8, ptr %1, i64 8
  %18 = load ptr, ptr %17, align 8, !tbaa !25
  %19 = tail call i32 @PyObject_IsTrue(ptr noundef %18) #7
  %20 = icmp slt i32 %19, 0
  br i1 %20, label %setconfig_impl.exit, label %21

21:                                               ; preds = %16, %14
  %.0 = phi i32 [ 1, %14 ], [ %19, %16 ]
  %22 = getelementptr inbounds nuw i8, ptr %0, i64 52
  %23 = load i32, ptr %22, align 4, !tbaa !21
  %.not.i.i = icmp eq i32 %23, 0
  br i1 %.not.i.i, label %32, label %24

24:                                               ; preds = %21
  %25 = tail call i64 @PyThread_get_thread_ident() #7
  %26 = getelementptr inbounds nuw i8, ptr %0, i64 64
  %27 = load i64, ptr %26, align 8, !tbaa !22
  %.not5.i.i = icmp eq i64 %25, %27
  br i1 %.not5.i.i, label %32, label %pysqlite_check_thread.exit.i

pysqlite_check_thread.exit.i:                     ; preds = %24
  %28 = getelementptr inbounds nuw i8, ptr %0, i64 208
  %29 = load ptr, ptr %28, align 8, !tbaa !23
  %30 = tail call i64 @PyThread_get_thread_ident() #7
  %31 = tail call ptr (ptr, ptr, ...) @PyErr_Format(ptr noundef %29, ptr noundef nonnull @.str.2, i64 noundef %27, i64 noundef %30) #7
  br label %setconfig_impl.exit

32:                                               ; preds = %24, %21
  %33 = getelementptr inbounds nuw i8, ptr %0, i64 56
  %34 = load i32, ptr %33, align 8, !tbaa !3
  %.not.i15.i = icmp eq i32 %34, 0
  br i1 %.not.i15.i, label %35, label %39

35:                                               ; preds = %32
  %36 = getelementptr i8, ptr %0, i64 8
  %.val.i.i = load ptr, ptr %36, align 8, !tbaa !16
  %37 = tail call ptr @PyType_GetModuleByDef(ptr noundef %.val.i.i, ptr noundef nonnull @_sqlite3module) #7
  %38 = tail call ptr @PyModule_GetState(ptr noundef %37) #7
  br label %pysqlite_check_connection.exit.thread.i

39:                                               ; preds = %32
  %40 = getelementptr inbounds nuw i8, ptr %0, i64 16
  %41 = load ptr, ptr %40, align 8, !tbaa !17
  %.not5.i16.i = icmp eq ptr %41, null
  br i1 %.not5.i16.i, label %42, label %pysqlite_check_connection.exit.i

42:                                               ; preds = %39
  %43 = getelementptr inbounds nuw i8, ptr %0, i64 24
  %44 = load ptr, ptr %43, align 8, !tbaa !18
  br label %pysqlite_check_connection.exit.thread.i

pysqlite_check_connection.exit.thread.i:          ; preds = %42, %35
  %.sink.i.i = phi ptr [ %44, %42 ], [ %38, %35 ]
  %.str.1.sink.i.i = phi ptr [ @.str.1, %42 ], [ @.str, %35 ]
  %45 = getelementptr inbounds nuw i8, ptr %.sink.i.i, i64 64
  %46 = load ptr, ptr %45, align 8, !tbaa !19
  tail call void @PyErr_SetString(ptr noundef %46, ptr noundef nonnull %.str.1.sink.i.i) #7
  br label %setconfig_impl.exit

pysqlite_check_connection.exit.i:                 ; preds = %39
  %.off.i.i = add i32 %10, -1002
  %switch.i.i = icmp ult i32 %.off.i.i, 16
  br i1 %switch.i.i, label %50, label %47

47:                                               ; preds = %pysqlite_check_connection.exit.i
  %48 = load ptr, ptr @PyExc_ValueError, align 8, !tbaa !25
  %49 = tail call ptr (ptr, ptr, ...) @PyErr_Format(ptr noundef %48, ptr noundef nonnull @.str.105, i32 noundef %10) #7
  br label %setconfig_impl.exit

50:                                               ; preds = %pysqlite_check_connection.exit.i
  call void @llvm.lifetime.start.p0(i64 4, ptr nonnull %4) #7
  %51 = call i32 (ptr, i32, ...) @sqlite3_db_config(ptr noundef nonnull %41, i32 noundef %10, i32 noundef range(i32 0, -2147483648) %.0, ptr noundef nonnull %4) #7
  %.not13.i = icmp eq i32 %51, 0
  br i1 %.not13.i, label %57, label %52

52:                                               ; preds = %50
  %53 = getelementptr inbounds nuw i8, ptr %0, i64 24
  %54 = load ptr, ptr %53, align 8, !tbaa !18
  %55 = load ptr, ptr %40, align 8, !tbaa !17
  %56 = call i32 @_pysqlite_seterror(ptr noundef %54, ptr noundef %55) #7
  br label %64

57:                                               ; preds = %50
  %58 = load i32, ptr %4, align 4, !tbaa !96
  %.not14.i = icmp eq i32 %.0, %58
  br i1 %.not14.i, label %64, label %59

59:                                               ; preds = %57
  %60 = getelementptr inbounds nuw i8, ptr %0, i64 24
  %61 = load ptr, ptr %60, align 8, !tbaa !18
  %62 = getelementptr inbounds nuw i8, ptr %61, i64 56
  %63 = load ptr, ptr %62, align 8, !tbaa !68
  call void @PyErr_SetString(ptr noundef %63, ptr noundef nonnull @.str.106) #7
  br label %64

64:                                               ; preds = %59, %57, %52
  %.1.i = phi ptr [ null, %52 ], [ null, %59 ], [ @_Py_NoneStruct, %57 ]
  call void @llvm.lifetime.end.p0(i64 4, ptr nonnull %4) #7
  br label %setconfig_impl.exit

setconfig_impl.exit:                              ; preds = %64, %47, %pysqlite_check_connection.exit.thread.i, %pysqlite_check_thread.exit.i, %16, %12, %6
  %.012 = phi ptr [ null, %12 ], [ null, %16 ], [ null, %6 ], [ %.1.i, %64 ], [ %49, %47 ], [ null, %pysqlite_check_thread.exit.i ], [ null, %pysqlite_check_connection.exit.thread.i ]
  ret ptr %.012
}